; Function Attrs: nounwind uwtable
define internal i32 @drbg_hash_uninstantiate_wrapper(ptr noundef %0) #0 {
  %2 = load ptr, ptr %0, align 8, !tbaa !18
  %.not = icmp eq ptr %2, null
  br i1 %.not, label %5, label %3

3:                                                ; preds = %1
  %4 = tail call i32 @CRYPTO_THREAD_write_lock(ptr noundef nonnull %2) #6
  %.not9 = icmp eq i32 %4, 0
  br i1 %.not9, label %15, label %5

5:                                                ; preds = %3, %1
  %6 = getelementptr inbounds nuw i8, ptr %0, i64 240
  %7 = load ptr, ptr %6, align 8, !tbaa !3
  %8 = getelementptr inbounds nuw i8, ptr %7, i64 40
  tail call void @OPENSSL_cleanse(ptr noundef nonnull %8, i64 noundef 111) #6
  %9 = getelementptr inbounds nuw i8, ptr %7, i64 151
  tail call void @OPENSSL_cleanse(ptr noundef nonnull %9, i64 noundef 111) #6
  %10 = getelementptr inbounds nuw i8, ptr %7, i64 262
  tail call void @OPENSSL_cleanse(ptr noundef nonnull %10, i64 noundef 111) #6
  %11 = tail call i32 @ossl_prov_drbg_uninstantiate(ptr noundef nonnull %0) #6
  %12 = load ptr, ptr %0, align 8, !tbaa !18
  %.not10 = icmp eq ptr %12, null
  br i1 %.not10, label %15, label %13

13:                                               ; preds = %5
  %14 = tail call i32 @CRYPTO_THREAD_unlock(ptr noundef nonnull %12) #6
  br label %15

15:                                               ; preds = %5, %13, %3
  %.0 = phi i32 [ 0, %3 ], [ %11, %13 ], [ %11, %5 ]
  ret i32 %.0
}